target datalayout = "e-m:e-p270:32:32-p271:32:32-p272:64:64-i64:64-i128:128-f80:128-n8:16:32:64-S128"
target triple = "x86_64-pc-linux-gnu"

; Function Attrs: nounwind uwtable
define hidden void @ScaleColsUp2_16_C(ptr noundef %0, ptr noundef %1, i32 noundef %2, i32 noundef %3, i32 noundef %4) #0 {
  %6 = alloca ptr, align 8
  %7 = alloca ptr, align 8
  %8 = alloca i32, align 4
  %9 = alloca i32, align 4
  %10 = alloca i32, align 4
  %11 = alloca i32, align 4
  store ptr %0, ptr %6, align 8
  store ptr %1, ptr %7, align 8
  store i32 %2, ptr %8, align 4
  store i32 %3, ptr %9, align 4
  store i32 %4, ptr %10, align 4
  store i32 0, ptr %11, align 4
  br label %12

12:                                               ; preds = %29, %5
  %13 = load i32, ptr %11, align 4
  %14 = load i32, ptr %8, align 4
  %15 = sub nsw i32 %14, 1
  %16 = icmp slt i32 %13, %15
  br i1 %16, label %17, label %32

17:                                               ; preds = %12
  %18 = load ptr, ptr %7, align 8
  %19 = getelementptr inbounds i16, ptr %18, i64 0
  %20 = load i16, ptr %19, align 2
  %21 = load ptr, ptr %6, align 8
  %22 = getelementptr inbounds i16, ptr %21, i64 0
  store i16 %20, ptr %22, align 2
  %23 = load ptr, ptr %6, align 8
  %24 = getelementptr inbounds i16, ptr %23, i64 1
  store i16 %20, ptr %24, align 2
  %25 = load ptr, ptr %7, align 8
  %26 = getelementptr inbounds i16, ptr %25, i64 1
  store ptr %26, ptr %7, align 8
  %27 = load ptr, ptr %6, align 8
  %28 = getelementptr inbounds i16, ptr %27, i64 2
  store ptr %28, ptr %6, align 8
  br label %29

29:                                               ; preds = %17
  %30 = load i32, ptr %11, align 4
  %31 = add nsw i32 %30, 2
  store i32 %31, ptr %11, align 4
  br label %12, !llvm.loop !12

32:                                               ; preds = %12
  %33 = load i32, ptr %8, align 4
  %34 = and i32 %33, 1
  %35 = icmp ne i32 %34, 0
  br i1 %35, label %36, label %42

36:                                               ; preds = %32
  %37 = load ptr, ptr %7, align 8
  %38 = getelementptr inbounds i16, ptr %37, i64 0
  %39 = load i16, ptr %38, align 2
  %40 = load ptr, ptr %6, align 8
  %41 = getelementptr inbounds i16, ptr %40, i64 0
  store i16 %39, ptr %41, align 2
  br label %42

42:                                               ; preds = %36, %32
  ret void
}