; Function Attrs: nofree norecurse nosync nounwind memory(argmem: readwrite) uwtable
define hidden void @ScaleColsUp2_16_C(ptr noundef writeonly captures(none) %0, ptr noundef readonly captures(none) %1, i32 noundef %2, i32 noundef %3, i32 noundef %4) local_unnamed_addr #0 {
  %6 = add nsw i32 %2, -1
  %7 = icmp sgt i32 %2, 1
  br i1 %7, label %.lr.ph, label %._crit_edge

.lr.ph:                                           ; preds = %5, %.lr.ph
  %.014 = phi i32 [ %12, %.lr.ph ], [ 0, %5 ]
  %.01013 = phi ptr [ %11, %.lr.ph ], [ %0, %5 ]
  %.01112 = phi ptr [ %10, %.lr.ph ], [ %1, %5 ]
  %8 = load i16, ptr %.01112, align 2
  store i16 %8, ptr %.01013, align 2
  %9 = getelementptr inbounds nuw i8, ptr %.01013, i64 2
  store i16 %8, ptr %9, align 2
  %10 = getelementptr inbounds nuw i8, ptr %.01112, i64 2
  %11 = getelementptr inbounds nuw i8, ptr %.01013, i64 4
  %12 = add nuw nsw i32 %.014, 2
  %13 = icmp slt i32 %12, %6
  br i1 %13, label %.lr.ph, label %._crit_edge, !llvm.loop !12

._crit_edge:                                      ; preds = %.lr.ph, %5
  %.011.lcssa = phi ptr [ %1, %5 ], [ %10, %.lr.ph ]
  %.010.lcssa = phi ptr [ %0, %5 ], [ %11, %.lr.ph ]
  %14 = and i32 %2, 1
  %.not = icmp eq i32 %14, 0
  br i1 %.not, label %17, label %15

15:                                               ; preds = %._crit_edge
  %16 = load i16, ptr %.011.lcssa, align 2
  store i16 %16, ptr %.010.lcssa, align 2
  br label %17

17:                                               ; preds = %15, %._crit_edge
  ret void
}